; Function Attrs: mustprogress nofree norecurse nosync nounwind memory(readwrite, inaccessiblemem: none) uwtable
define void @_ZN8LightGBM8MarkUsedEPSt6vectorIbSaIbEEPKii(ptr noundef readonly captures(none) %0, ptr noundef readonly captures(none) %1, i32 noundef %2) local_unnamed_addr #24 personality ptr @__gxx_personality_v0 {
  %4 = icmp sgt i32 %2, 0
  br i1 %4, label %.lr.ph, label %._crit_edge

.lr.ph:                                           ; preds = %3
  %5 = load ptr, ptr %0, align 8, !tbaa !291
  %wide.trip.count = zext nneg i32 %2 to i64
  br label %6

._crit_edge:                                      ; preds = %6, %3
  ret void

6:                                                ; preds = %.lr.ph, %6
  %indvars.iv = phi i64 [ 0, %.lr.ph ], [ %indvars.iv.next, %6 ]
  %7 = getelementptr inbounds nuw i32, ptr %1, i64 %indvars.iv
  %8 = load i32, ptr %7, align 4, !tbaa !104
  %9 = sext i32 %8 to i64
  %10 = sdiv i32 %8, 64
  %.sext = sext i32 %10 to i64
  %11 = getelementptr inbounds i64, ptr %5, i64 %.sext
  %12 = and i64 %9, -9223372036854775745
  %13 = icmp ugt i64 %12, -9223372036854775808
  %storemerge.idx.i.i.i.i.i = select i1 %13, i64 -8, i64 0
  %storemerge.i.i.i.i.i = getelementptr inbounds i8, ptr %11, i64 %storemerge.idx.i.i.i.i.i
  %14 = and i64 %9, 63
  %15 = shl nuw i64 1, %14
  %16 = load i64, ptr %storemerge.i.i.i.i.i, align 8, !tbaa !10
  %17 = or i64 %15, %16
  store i64 %17, ptr %storemerge.i.i.i.i.i, align 8, !tbaa !10
  %indvars.iv.next = add nuw nsw i64 %indvars.iv, 1
  %exitcond.not = icmp eq i64 %indvars.iv.next, %wide.trip.count
  br i1 %exitcond.not, label %._crit_edge, label %6, !llvm.loop !294
}